target datalayout = "e-m:e-p270:32:32-p271:32:32-p272:64:64-i64:64-i128:128-f80:128-n8:16:32:64-S128"
target triple = "x86_64-pc-linux-gnu"

%struct.Vec_Ptr_t_ = type { i32, i32, ptr }

; Function Attrs: inlinehint nounwind uwtable
define internal void @Abc_InfoXorBit(ptr noundef %0, i32 noundef %1) #2 {
  %3 = alloca ptr, align 8
  %4 = alloca i32, align 4
  store ptr %0, ptr %3, align 8, !tbaa !63
  store i32 %1, ptr %4, align 4, !tbaa !12
  %5 = load i32, ptr %4, align 4, !tbaa !12
  %6 = and i32 %5, 31
  %7 = shl i32 1, %6
  %8 = load ptr, ptr %3, align 8, !tbaa !63
  %9 = load i32, ptr %4, align 4, !tbaa !12
  %10 = ashr i32 %9, 5
  %11 = sext i32 %10 to i64
  %12 = getelementptr inbounds i32, ptr %8, i64 %11
  %13 = load i32, ptr %12, align 4, !tbaa !12
  %14 = xor i32 %13, %7
  store i32 %14, ptr %12, align 4, !tbaa !12
  ret void
}

; Function Attrs: inlinehint nounwind uwtable
define internal void @Abc_InfoSetBit(ptr noundef %0, i32 noundef %1) #2 {
  %3 = alloca ptr, align 8
  %4 = alloca i32, align 4
  store ptr %0, ptr %3, align 8, !tbaa !63
  store i32 %1, ptr %4, align 4, !tbaa !12
  %5 = load i32, ptr %4, align 4, !tbaa !12
  %6 = and i32 %5, 31
  %7 = shl i32 1, %6
  %8 = load ptr, ptr %3, align 8, !tbaa !63
  %9 = load i32, ptr %4, align 4, !tbaa !12
  %10 = ashr i32 %9, 5
  %11 = sext i32 %10 to i64
  %12 = getelementptr inbounds i32, ptr %8, i64 %11
  %13 = load i32, ptr %12, align 4, !tbaa !12
  %14 = or i32 %13, %7
  store i32 %14, ptr %12, align 4, !tbaa !12
  ret void
}

; Function Attrs: inlinehint nounwind uwtable
define internal i32 @Abc_LitIsCompl(i32 noundef %0) #2 {
  %2 = alloca i32, align 4
  store i32 %0, ptr %2, align 4, !tbaa !12
  %3 = load i32, ptr %2, align 4, !tbaa !12
  %4 = and i32 %3, 1
  ret i32 %4
}

; Function Attrs: inlinehint nounwind uwtable
define internal i32 @Abc_InfoHasBit(ptr noundef %0, i32 noundef %1) #2 {
  %3 = alloca ptr, align 8
  %4 = alloca i32, align 4
  store ptr %0, ptr %3, align 8, !tbaa !63
  store i32 %1, ptr %4, align 4, !tbaa !12
  %5 = load ptr, ptr %3, align 8, !tbaa !63
  %6 = load i32, ptr %4, align 4, !tbaa !12
  %7 = ashr i32 %6, 5
  %8 = sext i32 %7 to i64
  %9 = getelementptr inbounds i32, ptr %5, i64 %8
  %10 = load i32, ptr %9, align 4, !tbaa !12
  %11 = load i32, ptr %4, align 4, !tbaa !12
  %12 = and i32 %11, 31
  %13 = shl i32 1, %12
  %14 = and i32 %10, %13
  %15 = icmp ugt i32 %14, 0
  %16 = zext i1 %15 to i32
  ret i32 %16
}

; Function Attrs: inlinehint nounwind uwtable
define internal ptr @Vec_PtrEntry(ptr noundef %0, i32 noundef %1) #2 {
  %3 = alloca ptr, align 8
  %4 = alloca i32, align 4
  store ptr %0, ptr %3, align 8, !tbaa !62
  store i32 %1, ptr %4, align 4, !tbaa !12
  %5 = load ptr, ptr %3, align 8, !tbaa !62
  %6 = getelementptr inbounds nuw %struct.Vec_Ptr_t_, ptr %5, i32 0, i32 2
  %7 = load ptr, ptr %6, align 8, !tbaa !66
  %8 = load i32, ptr %4, align 4, !tbaa !12
  %9 = sext i32 %8 to i64
  %10 = getelementptr inbounds ptr, ptr %7, i64 %9
  %11 = load ptr, ptr %10, align 8, !tbaa !68
  ret ptr %11
}

; Function Attrs: inlinehint nounwind uwtable
define internal i32 @Abc_Lit2Var(i32 noundef %0) #2 {
  %2 = alloca i32, align 4
  store i32 %0, ptr %2, align 4, !tbaa !12
  %3 = load i32, ptr %2, align 4, !tbaa !12
  %4 = ashr i32 %3, 1
  ret i32 %4
}

; Function Attrs: nounwind uwtable
define i32 @Cec_ManPatCollectTry(ptr noundef %0, ptr noundef %1, i32 noundef %2, ptr noundef %3, i32 noundef %4) #0 {
  %6 = alloca i32, align 4
  %7 = alloca ptr, align 8
  %8 = alloca ptr, align 8
  %9 = alloca i32, align 4
  %10 = alloca ptr, align 8
  %11 = alloca i32, align 4
  %12 = alloca ptr, align 8
  %13 = alloca ptr, align 8
  %14 = alloca i32, align 4
  %15 = alloca i32, align 4
  store ptr %0, ptr %7, align 8, !tbaa !62
  store ptr %1, ptr %8, align 8, !tbaa !62
  store i32 %2, ptr %9, align 4, !tbaa !12
  store ptr %3, ptr %10, align 8, !tbaa !63
  store i32 %4, ptr %11, align 4, !tbaa !12
  call void @llvm.lifetime.start.p0(i64 8, ptr %12) #11
  call void @llvm.lifetime.start.p0(i64 8, ptr %13) #11
  call void @llvm.lifetime.start.p0(i64 4, ptr %14) #11
  store i32 0, ptr %14, align 4, !tbaa !12
  br label %16

16:                                               ; preds = %54, %5
  %17 = load i32, ptr %14, align 4, !tbaa !12
  %18 = load i32, ptr %11, align 4, !tbaa !12
  %19 = icmp slt i32 %17, %18
  br i1 %19, label %20, label %57

20:                                               ; preds = %16
  %21 = load ptr, ptr %7, align 8, !tbaa !62
  %22 = load ptr, ptr %10, align 8, !tbaa !63
  %23 = load i32, ptr %14, align 4, !tbaa !12
  %24 = sext i32 %23 to i64
  %25 = getelementptr inbounds i32, ptr %22, i64 %24
  %26 = load i32, ptr %25, align 4, !tbaa !12
  %27 = call i32 @Abc_Lit2Var(i32 noundef %26)
  %28 = call ptr @Vec_PtrEntry(ptr noundef %21, i32 noundef %27)
  store ptr %28, ptr %12, align 8, !tbaa !63
  %29 = load ptr, ptr %8, align 8, !tbaa !62
  %30 = load ptr, ptr %10, align 8, !tbaa !63
  %31 = load i32, ptr %14, align 4, !tbaa !12
  %32 = sext i32 %31 to i64
  %33 = getelementptr inbounds i32, ptr %30, i64 %32
  %34 = load i32, ptr %33, align 4, !tbaa !12
  %35 = call i32 @Abc_Lit2Var(i32 noundef %34)
  %36 = call ptr @Vec_PtrEntry(ptr noundef %29, i32 noundef %35)
  store ptr %36, ptr %13, align 8, !tbaa !63
  %37 = load ptr, ptr %13, align 8, !tbaa !63
  %38 = load i32, ptr %9, align 4, !tbaa !12
  %39 = call i32 @Abc_InfoHasBit(ptr noundef %37, i32 noundef %38)
  %40 = icmp ne i32 %39, 0
  br i1 %40, label %41, label %53

41:                                               ; preds = %20
  %42 = load ptr, ptr %12, align 8, !tbaa !63
  %43 = load i32, ptr %9, align 4, !tbaa !12
  %44 = call i32 @Abc_InfoHasBit(ptr noundef %42, i32 noundef %43)
  %45 = load ptr, ptr %10, align 8, !tbaa !63
  %46 = load i32, ptr %14, align 4, !tbaa !12
  %47 = sext i32 %46 to i64
  %48 = getelementptr inbounds i32, ptr %45, i64 %47
  %49 = load i32, ptr %48, align 4, !tbaa !12
  %50 = call i32 @Abc_LitIsCompl(i32 noundef %49)
  %51 = icmp eq i32 %44, %50
  br i1 %51, label %52, label %53

52:                                               ; preds = %41
  store i32 0, ptr %6, align 4
  store i32 1, ptr %15, align 4
  br label %99

53:                                               ; preds = %41, %20
  br label %54

54:                                               ; preds = %53
  %55 = load i32, ptr %14, align 4, !tbaa !12
  %56 = add nsw i32 %55, 1
  store i32 %56, ptr %14, align 4, !tbaa !12
  br label %16, !llvm.loop !64

57:                                               ; preds = %16
  store i32 0, ptr %14, align 4, !tbaa !12
  br label %58

58:                                               ; preds = %95, %57
  %59 = load i32, ptr %14, align 4, !tbaa !12
  %60 = load i32, ptr %11, align 4, !tbaa !12
  %61 = icmp slt i32 %59, %60
  br i1 %61, label %62, label %98

62:                                               ; preds = %58
  %63 = load ptr, ptr %7, align 8, !tbaa !62
  %64 = load ptr, ptr %10, align 8, !tbaa !63
  %65 = load i32, ptr %14, align 4, !tbaa !12
  %66 = sext i32 %65 to i64
  %67 = getelementptr inbounds i32, ptr %64, i64 %66
  %68 = load i32, ptr %67, align 4, !tbaa !12
  %69 = call i32 @Abc_Lit2Var(i32 noundef %68)
  %70 = call ptr @Vec_PtrEntry(ptr noundef %63, i32 noundef %69)
  store ptr %70, ptr %12, align 8, !tbaa !63
  %71 = load ptr, ptr %8, align 8, !tbaa !62
  %72 = load ptr, ptr %10, align 8, !tbaa !63
  %73 = load i32, ptr %14, align 4, !tbaa !12
  %74 = sext i32 %73 to i64
  %75 = getelementptr inbounds i32, ptr %72, i64 %74
  %76 = load i32, ptr %75, align 4, !tbaa !12
  %77 = call i32 @Abc_Lit2Var(i32 noundef %76)
  %78 = call ptr @Vec_PtrEntry(ptr noundef %71, i32 noundef %77)
  store ptr %78, ptr %13, align 8, !tbaa !63
  %79 = load ptr, ptr %13, align 8, !tbaa !63
  %80 = load i32, ptr %9, align 4, !tbaa !12
  call void @Abc_InfoSetBit(ptr noundef %79, i32 noundef %80)
  %81 = load ptr, ptr %12, align 8, !tbaa !63
  %82 = load i32, ptr %9, align 4, !tbaa !12
  %83 = call i32 @Abc_InfoHasBit(ptr noundef %81, i32 noundef %82)
  %84 = load ptr, ptr %10, align 8, !tbaa !63
  %85 = load i32, ptr %14, align 4, !tbaa !12
  %86 = sext i32 %85 to i64
  %87 = getelementptr inbounds i32, ptr %84, i64 %86
  %88 = load i32, ptr %87, align 4, !tbaa !12
  %89 = call i32 @Abc_LitIsCompl(i32 noundef %88)
  %90 = icmp eq i32 %83, %89
  br i1 %90, label %91, label %94

91:                                               ; preds = %62
  %92 = load ptr, ptr %12, align 8, !tbaa !63
  %93 = load i32, ptr %9, align 4, !tbaa !12
  call void @Abc_InfoXorBit(ptr noundef %92, i32 noundef %93)
  br label %94

94:                                               ; preds = %91, %62
  br label %95

95:                                               ; preds = %94
  %96 = load i32, ptr %14, align 4, !tbaa !12
  %97 = add nsw i32 %96, 1
  store i32 %97, ptr %14, align 4, !tbaa !12
  br label %58, !llvm.loop !65

98:                                               ; preds = %58
  store i32 1, ptr %6, align 4
  store i32 1, ptr %15, align 4
  br label %99

99:                                               ; preds = %98, %52
  call void @llvm.lifetime.end.p0(i64 4, ptr %14) #11
  call void @llvm.lifetime.end.p0(i64 8, ptr %13) #11
  call void @llvm.lifetime.end.p0(i64 8, ptr %12) #11
  %100 = load i32, ptr %6, align 4
  ret i32 %100
}